; Function Attrs: nounwind uwtable
define void @Gia_PolynCollectXors_rec(ptr noundef %0, i32 noundef %1, ptr noundef %2) local_unnamed_addr #0 {
  %4 = getelementptr i8, ptr %0, i64 32
  %.val = load ptr, ptr %4, align 8
  %5 = sext i32 %1 to i64
  %6 = getelementptr inbounds %struct.Gia_Obj_t_, ptr %.val, i64 %5
  %7 = getelementptr inbounds nuw i8, ptr %0, i64 616
  %8 = load ptr, ptr %7, align 8
  %9 = ptrtoint ptr %6 to i64
  %10 = shl nsw i64 %5, 2
  %11 = getelementptr inbounds i8, ptr %8, i64 %10
  %12 = load i32, ptr %11, align 4
  %13 = getelementptr inbounds nuw i8, ptr %0, i64 176
  %14 = load i32, ptr %13, align 8
  %.not = icmp eq i32 %12, %14
  br i1 %.not, label %Vec_IntPushUnique.exit, label %15

15:                                               ; preds = %3
  store i32 %14, ptr %11, align 4
  %.val21 = load i64, ptr %6, align 4
  %16 = and i64 %.val21, 2147483648
  %.not.i = icmp ne i64 %16, 0
  %17 = and i64 %.val21, 536870911
  %18 = icmp eq i64 %17, 536870911
  %narrow.i.not = or i1 %.not.i, %18
  br i1 %narrow.i.not, label %Vec_IntPushUnique.exit, label %Gia_ObjIsXor.exit

Gia_ObjIsXor.exit:                                ; preds = %15
  %19 = trunc i64 %.val21 to i32
  %20 = and i32 %19, 536870911
  %21 = lshr i64 %.val21, 32
  %22 = trunc nuw i64 %21 to i32
  %23 = and i32 %22, 536870911
  %.not32 = icmp samesign ult i32 %20, %23
  br i1 %.not32, label %24, label %Vec_IntPushUnique.exit

24:                                               ; preds = %Gia_ObjIsXor.exit
  %.val23 = load ptr, ptr %4, align 8
  %25 = getelementptr i8, ptr %0, i64 144
  %.val24 = load ptr, ptr %25, align 8
  %26 = ptrtoint ptr %.val23 to i64
  %27 = sub i64 %9, %26
  %28 = sdiv exact i64 %27, 12
  %sext.i29 = shl i64 %28, 32
  %29 = ashr exact i64 %sext.i29, 30
  %30 = getelementptr inbounds i8, ptr %.val24, i64 %29
  %31 = load i32, ptr %30, align 4
  %32 = icmp sgt i32 %31, 1
  br i1 %32, label %Vec_IntPushUnique.exit, label %33

33:                                               ; preds = %24
  %34 = sub nsw i32 %1, %20
  tail call void @Gia_PolynCollectXors_rec(ptr noundef nonnull %0, i32 noundef %34, ptr noundef %2)
  %.val26 = load i64, ptr %6, align 4
  %35 = lshr i64 %.val26, 32
  %36 = trunc nuw i64 %35 to i32
  %37 = and i32 %36, 536870911
  %38 = sub nsw i32 %1, %37
  tail call void @Gia_PolynCollectXors_rec(ptr noundef nonnull %0, i32 noundef %38, ptr noundef %2)
  %39 = getelementptr inbounds nuw i8, ptr %2, i64 4
  %40 = load i32, ptr %39, align 4
  %41 = icmp sgt i32 %40, 0
  br i1 %41, label %.lr.ph.i, label %._crit_edge.i

.lr.ph.i:                                         ; preds = %33
  %42 = getelementptr inbounds nuw i8, ptr %2, i64 8
  %43 = load ptr, ptr %42, align 8
  %wide.trip.count.i = zext nneg i32 %40 to i64
  br label %45

44:                                               ; preds = %45
  %indvars.iv.next.i = add nuw nsw i64 %indvars.iv.i, 1
  %exitcond.not.i = icmp eq i64 %indvars.iv.next.i, %wide.trip.count.i
  br i1 %exitcond.not.i, label %._crit_edge.i, label %45, !llvm.loop !4

45:                                               ; preds = %44, %.lr.ph.i
  %indvars.iv.i = phi i64 [ 0, %.lr.ph.i ], [ %indvars.iv.next.i, %44 ]
  %46 = getelementptr inbounds nuw i32, ptr %43, i64 %indvars.iv.i
  %47 = load i32, ptr %46, align 4
  %48 = icmp eq i32 %47, %1
  br i1 %48, label %Vec_IntPushUnique.exit, label %44

._crit_edge.i:                                    ; preds = %44, %33
  %49 = load i32, ptr %2, align 8
  %50 = icmp eq i32 %40, %49
  br i1 %50, label %51, label %.Vec_IntGrow.exit10_crit_edge.i.i

.Vec_IntGrow.exit10_crit_edge.i.i:                ; preds = %._crit_edge.i
  %.phi.trans.insert.i.i = getelementptr inbounds nuw i8, ptr %2, i64 8
  %.pre.i.i = load ptr, ptr %.phi.trans.insert.i.i, align 8
  br label %Vec_IntPush.exit.i

51:                                               ; preds = %._crit_edge.i
  %52 = icmp slt i32 %40, 16
  br i1 %52, label %53, label %61

53:                                               ; preds = %51
  %54 = getelementptr inbounds nuw i8, ptr %2, i64 8
  %55 = load ptr, ptr %54, align 8
  %.not9.i.i.i = icmp eq ptr %55, null
  br i1 %.not9.i.i.i, label %58, label %56

56:                                               ; preds = %53
  %57 = tail call dereferenceable_or_null(64) ptr @realloc(ptr noundef nonnull %55, i64 noundef 64) #7
  br label %Vec_IntGrow.exit.i.i

58:                                               ; preds = %53
  %59 = tail call noalias dereferenceable_or_null(64) ptr @malloc(i64 noundef 64) #8
  br label %Vec_IntGrow.exit.i.i

Vec_IntGrow.exit.i.i:                             ; preds = %58, %56
  %60 = phi ptr [ %57, %56 ], [ %59, %58 ]
  store ptr %60, ptr %54, align 8
  store i32 16, ptr %2, align 8
  br label %Vec_IntPush.exit.i

61:                                               ; preds = %51
  %62 = shl nuw nsw i32 %40, 1
  %63 = getelementptr inbounds nuw i8, ptr %2, i64 8
  %64 = load ptr, ptr %63, align 8
  %.not9.i9.i.i = icmp eq ptr %64, null
  %65 = zext nneg i32 %62 to i64
  %66 = shl nuw nsw i64 %65, 2
  br i1 %.not9.i9.i.i, label %69, label %67

67:                                               ; preds = %61
  %68 = tail call ptr @realloc(ptr noundef nonnull %64, i64 noundef %66) #7
  br label %71

69:                                               ; preds = %61
  %70 = tail call noalias ptr @malloc(i64 noundef %66) #8
  br label %71

71:                                               ; preds = %69, %67
  %72 = phi ptr [ %68, %67 ], [ %70, %69 ]
  store ptr %72, ptr %63, align 8
  store i32 %62, ptr %2, align 8
  br label %Vec_IntPush.exit.i

Vec_IntPush.exit.i:                               ; preds = %71, %Vec_IntGrow.exit.i.i, %.Vec_IntGrow.exit10_crit_edge.i.i
  %73 = phi ptr [ %.pre.i.i, %.Vec_IntGrow.exit10_crit_edge.i.i ], [ %72, %71 ], [ %60, %Vec_IntGrow.exit.i.i ]
  %74 = load i32, ptr %39, align 4
  %75 = add nsw i32 %74, 1
  store i32 %75, ptr %39, align 4
  %76 = sext i32 %74 to i64
  %77 = getelementptr inbounds i32, ptr %73, i64 %76
  store i32 %1, ptr %77, align 4
  br label %Vec_IntPushUnique.exit

Vec_IntPushUnique.exit:                           ; preds = %45, %Vec_IntPush.exit.i, %15, %Gia_ObjIsXor.exit, %24, %3
  ret void
}